; Function Attrs: nounwind uwtable
define hidden range(i32 0, 2) i32 @BrotliDecoderStateInit(ptr noundef initializes((48, 72), (128, 132)) %0, ptr noundef %1, ptr noundef %2, ptr noundef %3) local_unnamed_addr #0 {
  %.not = icmp eq ptr %1, null
  %.sink68 = select i1 %.not, ptr @BrotliDefaultAllocFunc, ptr %1
  %.sink67 = select i1 %.not, ptr @BrotliDefaultFreeFunc, ptr %2
  %.sink = select i1 %.not, ptr null, ptr %3
  %5 = getelementptr inbounds nuw i8, ptr %0, i64 48
  store ptr %.sink68, ptr %5, align 8, !tbaa !3
  %6 = getelementptr inbounds nuw i8, ptr %0, i64 56
  store ptr %.sink67, ptr %6, align 8, !tbaa !16
  %7 = getelementptr inbounds nuw i8, ptr %0, i64 64
  store ptr %.sink, ptr %7, align 8, !tbaa !17
  %8 = getelementptr inbounds nuw i8, ptr %0, i64 128
  store i32 0, ptr %8, align 8, !tbaa !18
  %9 = getelementptr inbounds nuw i8, ptr %0, i64 8
  tail call void @BrotliInitBitReader(ptr noundef nonnull %9) #4
  store i32 0, ptr %0, align 8, !tbaa !19
  %10 = getelementptr inbounds nuw i8, ptr %0, i64 772
  %11 = load i32, ptr %10, align 4
  %12 = getelementptr inbounds nuw i8, ptr %0, i64 80
  store i64 0, ptr %12, align 8, !tbaa !20
  %13 = getelementptr inbounds nuw i8, ptr %0, i64 4
  store i32 0, ptr %13, align 4, !tbaa !21
  %14 = getelementptr inbounds nuw i8, ptr %0, i64 88
  store i32 0, ptr %14, align 8, !tbaa !22
  %15 = getelementptr inbounds nuw i8, ptr %0, i64 424
  %16 = getelementptr inbounds nuw i8, ptr %0, i64 744
  %17 = getelementptr inbounds nuw i8, ptr %0, i64 256
  %18 = getelementptr inbounds nuw i8, ptr %0, i64 136
  store ptr null, ptr %18, align 8, !tbaa !23
  %19 = getelementptr inbounds nuw i8, ptr %0, i64 100
  store i32 0, ptr %19, align 4, !tbaa !24
  %20 = getelementptr inbounds nuw i8, ptr %0, i64 104
  store i32 0, ptr %20, align 8, !tbaa !25
  %21 = getelementptr inbounds nuw i8, ptr %0, i64 784
  %22 = getelementptr inbounds nuw i8, ptr %0, i64 408
  store ptr null, ptr %22, align 8, !tbaa !26
  %23 = getelementptr inbounds nuw i8, ptr %0, i64 168
  %24 = getelementptr inbounds nuw i8, ptr %0, i64 208
  %25 = getelementptr inbounds nuw i8, ptr %0, i64 232
  %26 = and i32 %11, -4096
  %27 = or disjoint i32 %26, 16
  tail call void @llvm.memset.p0.i64(ptr noundef nonnull align 8 dereferenceable(32) %23, i8 0, i64 32, i1 false)
  tail call void @llvm.memset.p0.i64(ptr noundef nonnull align 8 dereferenceable(16) %24, i8 0, i64 16, i1 false)
  tail call void @llvm.memset.p0.i64(ptr noundef nonnull align 8 dereferenceable(16) %25, i8 0, i64 16, i1 false)
  tail call void @llvm.memset.p0.i64(ptr noundef nonnull align 8 dereferenceable(16) %15, i8 0, i64 16, i1 false)
  tail call void @llvm.memset.p0.i64(ptr noundef nonnull align 8 dereferenceable(28) %16, i8 0, i64 28, i1 false)
  tail call void @llvm.memset.p0.i64(ptr noundef nonnull align 8 dereferenceable(16) %21, i8 0, i64 16, i1 false)
  store i32 %27, ptr %10, align 4
  %28 = getelementptr inbounds nuw i8, ptr %0, i64 96
  store i32 0, ptr %28, align 8, !tbaa !27
  %29 = getelementptr inbounds nuw i8, ptr %0, i64 112
  store i32 16, ptr %29, align 8, !tbaa !28
  %30 = getelementptr inbounds nuw i8, ptr %0, i64 116
  store i32 15, ptr %30, align 4, !tbaa !28
  %31 = getelementptr inbounds nuw i8, ptr %0, i64 120
  store i32 11, ptr %31, align 8, !tbaa !28
  %32 = getelementptr inbounds nuw i8, ptr %0, i64 124
  store i32 4, ptr %32, align 4, !tbaa !28
  %33 = getelementptr inbounds nuw i8, ptr %0, i64 108
  store i32 0, ptr %33, align 4, !tbaa !29
  %34 = getelementptr inbounds nuw i8, ptr %0, i64 440
  tail call void @llvm.memset.p0.i64(ptr noundef nonnull align 8 dereferenceable(16) %17, i8 0, i64 16, i1 false)
  store i64 63, ptr %34, align 8, !tbaa !30
  %35 = getelementptr inbounds nuw i8, ptr %0, i64 808
  store ptr null, ptr %35, align 8, !tbaa !31
  %36 = tail call ptr @BrotliSharedDictionaryCreateInstance(ptr noundef %1, ptr noundef %2, ptr noundef %3) #4
  %37 = getelementptr inbounds nuw i8, ptr %0, i64 800
  store ptr %36, ptr %37, align 8, !tbaa !32
  %.not66 = icmp eq ptr %36, null
  br i1 %.not66, label %40, label %38

38:                                               ; preds = %4
  %39 = getelementptr inbounds nuw i8, ptr %0, i64 720
  tail call void @llvm.memset.p0.i64(ptr noundef nonnull align 8 dereferenceable(24) %39, i8 0, i64 24, i1 false)
  br label %40

40:                                               ; preds = %4, %38
  %.0 = phi i32 [ 1, %38 ], [ 0, %4 ]
  ret i32 %.0
}